target datalayout = "e-m:e-p270:32:32-p271:32:32-p272:64:64-i64:64-i128:128-f80:128-n8:16:32:64-S128"
target triple = "x86_64-unknown-linux-gnu"

%"class.google::protobuf::io::ZeroCopyInputStream" = type { ptr }
%"class.google::protobuf::io::LimitingInputStream" = type { %"class.google::protobuf::io::ZeroCopyInputStream", ptr, i64, i64 }

; Function Attrs: mustprogress uwtable
define void @_ZN6google8protobuf2io19LimitingInputStream6BackUpEi(ptr noundef nonnull align 8 dereferenceable(32) %this, i32 noundef %count) unnamed_addr #5 align 2 {
entry:
  %this.addr = alloca ptr, align 8
  %count.addr = alloca i32, align 4
  store ptr %this, ptr %this.addr, align 8
  store i32 %count, ptr %count.addr, align 4
  %this1 = load ptr, ptr %this.addr, align 8
  %limit_ = getelementptr inbounds %"class.google::protobuf::io::LimitingInputStream", ptr %this1, i32 0, i32 2
  %0 = load i64, ptr %limit_, align 8
  %cmp = icmp slt i64 %0, 0
  br i1 %cmp, label %if.then, label %if.else

if.then:                                          ; preds = %entry
  %input_ = getelementptr inbounds %"class.google::protobuf::io::LimitingInputStream", ptr %this1, i32 0, i32 1
  %1 = load ptr, ptr %input_, align 8
  %2 = load i32, ptr %count.addr, align 4
  %conv = sext i32 %2 to i64
  %limit_2 = getelementptr inbounds %"class.google::protobuf::io::LimitingInputStream", ptr %this1, i32 0, i32 2
  %3 = load i64, ptr %limit_2, align 8
  %sub = sub nsw i64 %conv, %3
  %conv3 = trunc i64 %sub to i32
  %vtable = load ptr, ptr %1, align 8
  %vfn = getelementptr inbounds ptr, ptr %vtable, i64 3
  %4 = load ptr, ptr %vfn, align 8
  call void %4(ptr noundef nonnull align 8 dereferenceable(8) %1, i32 noundef %conv3)
  %5 = load i32, ptr %count.addr, align 4
  %conv4 = sext i32 %5 to i64
  %limit_5 = getelementptr inbounds %"class.google::protobuf::io::LimitingInputStream", ptr %this1, i32 0, i32 2
  store i64 %conv4, ptr %limit_5, align 8
  br label %if.end

if.else:                                          ; preds = %entry
  %input_6 = getelementptr inbounds %"class.google::protobuf::io::LimitingInputStream", ptr %this1, i32 0, i32 1
  %6 = load ptr, ptr %input_6, align 8
  %7 = load i32, ptr %count.addr, align 4
  %vtable7 = load ptr, ptr %6, align 8
  %vfn8 = getelementptr inbounds ptr, ptr %vtable7, i64 3
  %8 = load ptr, ptr %vfn8, align 8
  call void %8(ptr noundef nonnull align 8 dereferenceable(8) %6, i32 noundef %7)
  %9 = load i32, ptr %count.addr, align 4
  %conv9 = sext i32 %9 to i64
  %limit_10 = getelementptr inbounds %"class.google::protobuf::io::LimitingInputStream", ptr %this1, i32 0, i32 2
  %10 = load i64, ptr %limit_10, align 8
  %add = add nsw i64 %10, %conv9
  store i64 %add, ptr %limit_10, align 8
  br label %if.end

if.end:                                           ; preds = %if.else, %if.then
  ret void
}