; Function Attrs: mustprogress uwtable
define void @_ZN6google8protobuf2io19LimitingInputStream6BackUpEi(ptr nocapture noundef nonnull align 8 dereferenceable(32) %this, i32 noundef %count) unnamed_addr #5 align 2 {
entry:
  %limit_ = getelementptr inbounds i8, ptr %this, i64 16
  %0 = load i64, ptr %limit_, align 8
  %cmp = icmp slt i64 %0, 0
  %input_ = getelementptr inbounds i8, ptr %this, i64 8
  %1 = load ptr, ptr %input_, align 8
  br i1 %cmp, label %if.then, label %if.else

if.then:                                          ; preds = %entry
  %conv = sext i32 %count to i64
  %2 = trunc i64 %0 to i32
  %conv3 = sub i32 %count, %2
  %vtable = load ptr, ptr %1, align 8
  %vfn = getelementptr inbounds i8, ptr %vtable, i64 24
  %3 = load ptr, ptr %vfn, align 8
  tail call void %3(ptr noundef nonnull align 8 dereferenceable(8) %1, i32 noundef %conv3)
  br label %if.end

if.else:                                          ; preds = %entry
  %vtable7 = load ptr, ptr %1, align 8
  %vfn8 = getelementptr inbounds i8, ptr %vtable7, i64 24
  %4 = load ptr, ptr %vfn8, align 8
  tail call void %4(ptr noundef nonnull align 8 dereferenceable(8) %1, i32 noundef %count)
  %conv9 = sext i32 %count to i64
  %5 = load i64, ptr %limit_, align 8
  %add = add nsw i64 %5, %conv9
  br label %if.end

if.end:                                           ; preds = %if.else, %if.then
  %storemerge = phi i64 [ %add, %if.else ], [ %conv, %if.then ]
  store i64 %storemerge, ptr %limit_, align 8
  ret void
}